; Function Attrs: mustprogress nofree norecurse nosync nounwind willreturn memory(read, argmem: readwrite, inaccessiblemem: none) uwtable
define void @_ZN4base14PickleIteratorC2ERKNS_6PickleE(ptr noundef nonnull writeonly align 8 captures(none) dereferenceable(24) initializes((0, 24)) %0, ptr noundef nonnull readonly align 8 captures(none) dereferenceable(40) %1) unnamed_addr #4 align 2 {
  %3 = getelementptr inbounds nuw i8, ptr %1, i64 8
  %4 = load ptr, ptr %3, align 8, !tbaa !13
  %5 = getelementptr inbounds nuw i8, ptr %1, i64 16
  %6 = load i64, ptr %5, align 8, !tbaa !14
  %7 = getelementptr inbounds nuw i8, ptr %4, i64 %6
  store ptr %7, ptr %0, align 8, !tbaa !18
  %8 = getelementptr inbounds nuw i8, ptr %0, i64 8
  store i64 0, ptr %8, align 8, !tbaa !21
  %.not.i = icmp eq ptr %4, null
  br i1 %.not.i, label %_ZNK4base6Pickle12payload_sizeEv.exit, label %9

9:                                                ; preds = %2
  %10 = load i32, ptr %4, align 4, !tbaa !15
  %11 = zext i32 %10 to i64
  br label %_ZNK4base6Pickle12payload_sizeEv.exit

_ZNK4base6Pickle12payload_sizeEv.exit:            ; preds = %2, %9
  %12 = phi i64 [ %11, %9 ], [ 0, %2 ]
  %13 = getelementptr inbounds nuw i8, ptr %0, i64 16
  store i64 %12, ptr %13, align 8, !tbaa !22
  ret void
}